target datalayout = "e-m:e-p270:32:32-p271:32:32-p272:64:64-i64:64-i128:128-f80:128-n8:16:32:64-S128"
target triple = "x86_64-pc-linux-gnu"

%struct._address = type { i32, i32, ptr, ptr }

@.str = private unnamed_addr constant [19 x i8] c"[Buffer too small]\00", align 1

; Function Attrs: nounwind null_pointer_is_valid sspstrong uwtable
define internal i32 @fcwwn_str_len(ptr noundef %0) #0 {
  %2 = alloca ptr, align 8
  store ptr %0, ptr %2, align 8
  ret i32 24
}

; Function Attrs: null_pointer_is_valid sspstrong uwtable
define internal i32 @fcwwn_to_str(ptr noundef %0, ptr noundef %1, i32 noundef %2) #3 {
  %4 = alloca i32, align 4
  %5 = alloca ptr, align 8
  %6 = alloca ptr, align 8
  %7 = alloca i32, align 4
  %8 = alloca ptr, align 8
  store ptr %0, ptr %5, align 8
  store ptr %1, ptr %6, align 8
  store i32 %2, ptr %7, align 4
  br label %9

9:                                                ; preds = %3
  %10 = load i32, ptr %7, align 4
  %11 = icmp sgt i32 24, %10
  br i1 %11, label %12, label %18

12:                                               ; preds = %9
  %13 = load ptr, ptr %6, align 8
  %14 = load i32, ptr %7, align 4
  %15 = sext i32 %14 to i64
  %16 = call i64 @g_strlcpy(ptr noundef %13, ptr noundef @.str, i64 noundef %15)
  %17 = load i32, ptr %7, align 4
  store i32 %17, ptr %4, align 4
  br label %29

18:                                               ; preds = %9
  br label %19

19:                                               ; preds = %18
  call void @llvm.lifetime.start.p0(i64 8, ptr %8) #12
  %20 = load ptr, ptr %5, align 8
  %21 = getelementptr inbounds nuw %struct._address, ptr %20, i32 0, i32 2
  %22 = load ptr, ptr %21, align 8
  store ptr %22, ptr %8, align 8
  %23 = load ptr, ptr %6, align 8
  %24 = load ptr, ptr %8, align 8
  %25 = call ptr @bytes_to_hexstr_punct(ptr noundef %23, ptr noundef %24, i64 noundef 8, i8 noundef signext 58)
  store ptr %25, ptr %6, align 8
  %26 = load ptr, ptr %6, align 8
  store i8 0, ptr %26, align 1
  %27 = load ptr, ptr %5, align 8
  %28 = call i32 @fcwwn_str_len(ptr noundef %27)
  store i32 %28, ptr %4, align 4
  call void @llvm.lifetime.end.p0(i64 8, ptr %8) #12
  br label %29

29:                                               ; preds = %19, %12
  %30 = load i32, ptr %4, align 4
  ret i32 %30
}