; Function Attrs: null_pointer_is_valid sspstrong uwtable
define internal range(i32 -2147483648, 25) i32 @fcwwn_to_str(ptr noundef readonly captures(none) %0, ptr noundef %1, i32 noundef %2) #6 {
  %4 = icmp slt i32 %2, 24
  br i1 %4, label %5, label %8

5:                                                ; preds = %3
  %6 = sext i32 %2 to i64
  %7 = tail call i64 @g_strlcpy(ptr noundef %1, ptr noundef nonnull @.str, i64 noundef %6)
  br label %12

8:                                                ; preds = %3
  %9 = getelementptr inbounds nuw i8, ptr %0, i64 8
  %10 = load ptr, ptr %9, align 8
  %11 = tail call ptr @bytes_to_hexstr_punct(ptr noundef %1, ptr noundef %10, i64 noundef 8, i8 noundef signext 58)
  store i8 0, ptr %11, align 1
  br label %12

12:                                               ; preds = %8, %5
  %.0 = phi i32 [ %2, %5 ], [ 24, %8 ]
  ret i32 %.0
}